; Function Attrs: mustprogress nounwind uwtable
define hidden void @_ZN18G1ConcurrentRefine31adjust_young_list_target_lengthEv(ptr nocapture noundef nonnull readonly align 8 dereferenceable(136) %0) local_unnamed_addr #0 align 2 {
  %2 = alloca %"class.G1ConcurrentRefine::RemSetSamplingClosure", align 8
  %3 = load ptr, ptr %0, align 8
  %4 = tail call noundef zeroext i1 @_ZNK8G1Policy30use_adaptive_young_list_lengthEv(ptr noundef nonnull align 8 dereferenceable(552) %3) #17
  br i1 %4, label %5, label %14

5:                                                ; preds = %1
  %6 = getelementptr inbounds i8, ptr %2, i64 8
  store i8 1, ptr %6, align 8
  store ptr getelementptr inbounds inrange(-16, 8) (i8, ptr @_ZTVN18G1ConcurrentRefine21RemSetSamplingClosureE, i64 16), ptr %2, align 8
  %7 = getelementptr inbounds i8, ptr %2, i64 16
  call void @llvm.memset.p0.i64(ptr noundef nonnull align 8 dereferenceable(16) %7, i8 0, i64 16, i1 false)
  %8 = load ptr, ptr @_ZN8Universe14_collectedHeapE, align 8
  %9 = getelementptr inbounds i8, ptr %8, i64 1080
  call void @_ZNK15G1CollectionSet7iterateEP19G1HeapRegionClosure(ptr noundef nonnull align 8 dereferenceable(160) %9, ptr noundef nonnull %2) #17
  %10 = load ptr, ptr %0, align 8
  %11 = load i64, ptr %7, align 8
  %12 = getelementptr inbounds i8, ptr %2, i64 24
  %13 = load i64, ptr %12, align 8
  call void @_ZN8G1Policy31revise_young_list_target_lengthEmm(ptr noundef nonnull align 8 dereferenceable(552) %10, i64 noundef %11, i64 noundef %13) #17
  br label %14

14:                                               ; preds = %5, %1
  ret void
}